; Function Attrs: mustprogress uwtable
define i32 @_ZN4base9TaskToken19GetForCurrentThreadEv() local_unnamed_addr #2 align 2 personality ptr @__gxx_personality_v0 {
  %1 = load atomic volatile i64, ptr @_ZN4base12_GLOBAL__N_122tls_current_task_tokenE acquire, align 8
  %.not.i.i = icmp ult i64 %1, 2
  br i1 %.not.i.i, label %2, label %_ZN4base12LazyInstanceINS_18ThreadLocalPointerIKNS_9TaskTokenEEENS_8internal23LeakyLazyInstanceTraitsIS4_EEE3GetEv.exit

2:                                                ; preds = %0
  %3 = tail call noundef zeroext i1 @_ZN4base8internal17NeedsLazyInstanceEPl(ptr noundef nonnull align 8 dereferenceable(16) @_ZN4base12_GLOBAL__N_122tls_current_task_tokenE)
  br i1 %3, label %4, label %_ZN4base12LazyInstanceINS_18ThreadLocalPointerIKNS_9TaskTokenEEENS_8internal23LeakyLazyInstanceTraitsIS4_EEE3GetEv.exit

4:                                                ; preds = %2
  store i32 0, ptr getelementptr inbounds nuw (i8, ptr @_ZN4base12_GLOBAL__N_122tls_current_task_tokenE, i64 8), align 8, !tbaa !13
  tail call void @_ZN4base8internal19ThreadLocalPlatform12AllocateSlotEPj(ptr noundef nonnull align 4 dereferenceable(4) getelementptr inbounds nuw (i8, ptr @_ZN4base12_GLOBAL__N_122tls_current_task_tokenE, i64 8))
  tail call void @_ZN4base8internal20CompleteLazyInstanceEPllPvPFvS2_E(ptr noundef nonnull align 8 dereferenceable(16) @_ZN4base12_GLOBAL__N_122tls_current_task_tokenE, i64 noundef ptrtoint (ptr getelementptr inbounds nuw (i8, ptr @_ZN4base12_GLOBAL__N_122tls_current_task_tokenE, i64 8) to i64), ptr noundef nonnull align 8 dereferenceable(16) @_ZN4base12_GLOBAL__N_122tls_current_task_tokenE, ptr noundef null)
  br label %_ZN4base12LazyInstanceINS_18ThreadLocalPointerIKNS_9TaskTokenEEENS_8internal23LeakyLazyInstanceTraitsIS4_EEE3GetEv.exit

_ZN4base12LazyInstanceINS_18ThreadLocalPointerIKNS_9TaskTokenEEENS_8internal23LeakyLazyInstanceTraitsIS4_EEE3GetEv.exit: ; preds = %0, %2, %4
  %5 = load atomic volatile i64, ptr @_ZN4base12_GLOBAL__N_122tls_current_task_tokenE monotonic, align 8
  %6 = inttoptr i64 %5 to ptr
  %7 = load i32, ptr %6, align 4, !tbaa !13
  %8 = tail call noundef ptr @_ZN4base8internal19ThreadLocalPlatform16GetValueFromSlotEj(i32 noundef %7)
  %.not = icmp eq ptr %8, null
  br i1 %.not, label %11, label %9

9:                                                ; preds = %_ZN4base12LazyInstanceINS_18ThreadLocalPointerIKNS_9TaskTokenEEENS_8internal23LeakyLazyInstanceTraitsIS4_EEE3GetEv.exit
  %10 = load i32, ptr %8, align 4, !tbaa !10
  br label %11

11:                                               ; preds = %_ZN4base12LazyInstanceINS_18ThreadLocalPointerIKNS_9TaskTokenEEENS_8internal23LeakyLazyInstanceTraitsIS4_EEE3GetEv.exit, %9
  %.sroa.0.0 = phi i32 [ %10, %9 ], [ -1, %_ZN4base12LazyInstanceINS_18ThreadLocalPointerIKNS_9TaskTokenEEENS_8internal23LeakyLazyInstanceTraitsIS4_EEE3GetEv.exit ]
  ret i32 %.sroa.0.0
}